; Function Attrs: nounwind uwtable
define hidden void @zif_ctype_digit(ptr noundef %0, ptr nocapture noundef writeonly %1) #0 {
  %3 = getelementptr inbounds i8, ptr %0, i64 44
  %4 = load i32, ptr %3, align 4
  %cond = icmp eq i32 %4, 1
  br i1 %cond, label %6, label %5

5:                                                ; preds = %2
  tail call void @zend_wrong_parameters_count_error(i32 noundef 1, i32 noundef 1) #4
  tail call void @zend_wrong_parameter_error(i32 noundef 1, i32 noundef 0, ptr noundef null, i32 noundef 0, ptr noundef null) #4
  br label %ctype_fallback.exit

6:                                                ; preds = %2
  %7 = getelementptr inbounds i8, ptr %0, i64 80
  %8 = getelementptr inbounds i8, ptr %0, i64 88
  %9 = load i8, ptr %8, align 8
  %10 = icmp eq i8 %9, 6
  br i1 %10, label %11, label %34

11:                                               ; preds = %6
  %12 = load ptr, ptr %7, align 8
  %13 = getelementptr inbounds i8, ptr %12, i64 24
  %14 = getelementptr inbounds i8, ptr %12, i64 16
  %15 = load i64, ptr %14, align 8
  %16 = getelementptr inbounds i8, ptr %13, i64 %15
  %17 = icmp eq i64 %15, 0
  br i1 %17, label %18, label %.preheader

18:                                               ; preds = %11
  %19 = getelementptr inbounds i8, ptr %1, i64 8
  store i32 2, ptr %19, align 8
  br label %ctype_fallback.exit

.preheader:                                       ; preds = %11, %21
  %.044 = phi ptr [ %24, %21 ], [ %13, %11 ]
  %20 = icmp ult ptr %.044, %16
  br i1 %20, label %21, label %32

21:                                               ; preds = %.preheader
  %22 = tail call ptr @__ctype_b_loc() #5
  %23 = load ptr, ptr %22, align 8
  %24 = getelementptr inbounds i8, ptr %.044, i64 1
  %25 = load i8, ptr %.044, align 1
  %26 = zext i8 %25 to i64
  %27 = getelementptr inbounds i16, ptr %23, i64 %26
  %28 = load i16, ptr %27, align 2
  %29 = and i16 %28, 2048
  %.not55 = icmp eq i16 %29, 0
  br i1 %.not55, label %30, label %.preheader

30:                                               ; preds = %21
  %31 = getelementptr inbounds i8, ptr %1, i64 8
  store i32 2, ptr %31, align 8
  br label %ctype_fallback.exit

32:                                               ; preds = %.preheader
  %33 = getelementptr inbounds i8, ptr %1, i64 8
  store i32 3, ptr %33, align 8
  br label %ctype_fallback.exit

34:                                               ; preds = %6
  %35 = tail call ptr @zend_zval_type_name(ptr noundef nonnull %7) #4
  tail call void (ptr, i32, ptr, ...) @php_error_docref(ptr noundef null, i32 noundef 8192, ptr noundef nonnull @.str.17, ptr noundef %35) #4
  %36 = load i8, ptr %8, align 8
  %37 = icmp eq i8 %36, 4
  br i1 %37, label %38, label %52

38:                                               ; preds = %34
  %39 = load i64, ptr %7, align 8
  %40 = icmp sgt i64 %39, -1
  %or.cond.i = icmp ult i64 %39, 256
  br i1 %or.cond.i, label %41, label %46

41:                                               ; preds = %38
  %42 = trunc i64 %39 to i32
  %43 = add nsw i32 %42, -58
  %isdigit61 = icmp ult i32 %43, -10
  %44 = select i1 %isdigit61, i32 2, i32 3
  %45 = getelementptr inbounds i8, ptr %1, i64 8
  store i32 %44, ptr %45, align 8
  br label %ctype_fallback.exit

46:                                               ; preds = %38
  %or.cond20.i = icmp ugt i64 %39, -129
  %47 = getelementptr inbounds i8, ptr %1, i64 8
  br i1 %or.cond20.i, label %48, label %49

48:                                               ; preds = %46
  store i32 2, ptr %47, align 8
  br label %ctype_fallback.exit

49:                                               ; preds = %46
  br i1 %40, label %50, label %51

50:                                               ; preds = %49
  store i32 3, ptr %47, align 8
  br label %ctype_fallback.exit

51:                                               ; preds = %49
  store i32 2, ptr %47, align 8
  br label %ctype_fallback.exit

52:                                               ; preds = %34
  %53 = getelementptr inbounds i8, ptr %1, i64 8
  store i32 2, ptr %53, align 8
  br label %ctype_fallback.exit

ctype_fallback.exit:                              ; preds = %52, %51, %50, %48, %41, %32, %30, %18, %5
  ret void
}